target datalayout = "e-m:e-p270:32:32-p271:32:32-p272:64:64-i64:64-i128:128-f80:128-n8:16:32:64-S128"
target triple = "x86_64-pc-linux-gnu"

%struct.ExpireMeta = type { i32, i16, i16, ptr }
%struct.redisObject = type { i32, i32, ptr }
%struct.listpackEx = type { %struct.ExpireMeta, ptr, ptr }
%struct.sdshdr8 = type { i8, i8, i8, [0 x i8] }
%struct.sdshdr16 = type <{ i16, i16, i8, [0 x i8] }>
%struct.sdshdr32 = type <{ i32, i32, i8, [0 x i8] }>
%struct.sdshdr64 = type <{ i64, i64, i8, [0 x i8] }>

@.str.2 = private unnamed_addr constant [9 x i8] c"t_hash.c\00", align 1
@.str.7 = private unnamed_addr constant [13 x i8] c"vptr != NULL\00", align 1
@.str.8 = private unnamed_addr constant [35 x i8] c"h && lpGetIntegerValue(h, &expire)\00", align 1
@.str.9 = private unnamed_addr constant [26 x i8] c"Unknown hash encoding: %d\00", align 1

; Function Attrs: inlinehint nounwind uwtable
define internal i64 @sdslen(ptr noundef %0) #7 {
  %2 = alloca i64, align 8
  %3 = alloca ptr, align 8
  %4 = alloca i8, align 1
  %5 = alloca i32, align 4
  store ptr %0, ptr %3, align 8, !tbaa !33
  call void @llvm.lifetime.start.p0(i64 1, ptr %4) #12
  %6 = load ptr, ptr %3, align 8, !tbaa !33
  %7 = getelementptr inbounds i8, ptr %6, i64 -1
  %8 = load i8, ptr %7, align 1, !tbaa !95
  store i8 %8, ptr %4, align 1, !tbaa !95
  %9 = load i8, ptr %4, align 1, !tbaa !95
  %10 = zext i8 %9 to i32
  %11 = and i32 %10, 7
  switch i32 %11, label %40 [
    i32 0, label %12
    i32 1, label %17
    i32 2, label %23
    i32 3, label %29
    i32 4, label %35
  ]

12:                                               ; preds = %1
  %13 = load i8, ptr %4, align 1, !tbaa !95
  %14 = zext i8 %13 to i32
  %15 = ashr i32 %14, 3
  %16 = sext i32 %15 to i64
  store i64 %16, ptr %2, align 8
  store i32 1, ptr %5, align 4
  br label %41

17:                                               ; preds = %1
  %18 = load ptr, ptr %3, align 8, !tbaa !33
  %19 = getelementptr inbounds i8, ptr %18, i64 -3
  %20 = getelementptr inbounds nuw %struct.sdshdr8, ptr %19, i32 0, i32 0
  %21 = load i8, ptr %20, align 1, !tbaa !95
  %22 = zext i8 %21 to i64
  store i64 %22, ptr %2, align 8
  store i32 1, ptr %5, align 4
  br label %41

23:                                               ; preds = %1
  %24 = load ptr, ptr %3, align 8, !tbaa !33
  %25 = getelementptr inbounds i8, ptr %24, i64 -5
  %26 = getelementptr inbounds nuw %struct.sdshdr16, ptr %25, i32 0, i32 0
  %27 = load i16, ptr %26, align 1, !tbaa !96
  %28 = zext i16 %27 to i64
  store i64 %28, ptr %2, align 8
  store i32 1, ptr %5, align 4
  br label %41

29:                                               ; preds = %1
  %30 = load ptr, ptr %3, align 8, !tbaa !33
  %31 = getelementptr inbounds i8, ptr %30, i64 -9
  %32 = getelementptr inbounds nuw %struct.sdshdr32, ptr %31, i32 0, i32 0
  %33 = load i32, ptr %32, align 1, !tbaa !13
  %34 = zext i32 %33 to i64
  store i64 %34, ptr %2, align 8
  store i32 1, ptr %5, align 4
  br label %41

35:                                               ; preds = %1
  %36 = load ptr, ptr %3, align 8, !tbaa !33
  %37 = getelementptr inbounds i8, ptr %36, i64 -17
  %38 = getelementptr inbounds nuw %struct.sdshdr64, ptr %37, i32 0, i32 0
  %39 = load i64, ptr %38, align 1, !tbaa !31
  store i64 %39, ptr %2, align 8
  store i32 1, ptr %5, align 4
  br label %41

40:                                               ; preds = %1
  store i64 0, ptr %2, align 8
  store i32 1, ptr %5, align 4
  br label %41

41:                                               ; preds = %40, %35, %29, %23, %17, %12
  call void @llvm.lifetime.end.p0(i64 1, ptr %4) #12
  %42 = load i64, ptr %2, align 8
  ret i64 %42
}

; Function Attrs: nounwind uwtable
define dso_local i32 @hashTypeGetFromListpack(ptr noundef %0, ptr noundef %1, ptr noundef %2, ptr noundef %3, ptr noundef %4, ptr noundef %5) #1 {
  %7 = alloca i32, align 4
  %8 = alloca ptr, align 8
  %9 = alloca ptr, align 8
  %10 = alloca ptr, align 8
  %11 = alloca ptr, align 8
  %12 = alloca ptr, align 8
  %13 = alloca ptr, align 8
  %14 = alloca ptr, align 8
  %15 = alloca ptr, align 8
  %16 = alloca ptr, align 8
  %17 = alloca i64, align 8
  %18 = alloca ptr, align 8
  %19 = alloca ptr, align 8
  %20 = alloca i32, align 4
  store ptr %0, ptr %8, align 8, !tbaa !15
  store ptr %1, ptr %9, align 8, !tbaa !33
  store ptr %2, ptr %10, align 8, !tbaa !102
  store ptr %3, ptr %11, align 8, !tbaa !103
  store ptr %4, ptr %12, align 8, !tbaa !105
  store ptr %5, ptr %13, align 8, !tbaa !107
  %21 = load ptr, ptr %13, align 8, !tbaa !107
  store i64 281474976710656, ptr %21, align 8, !tbaa !31
  call void @llvm.lifetime.start.p0(i64 8, ptr %14) #12
  call void @llvm.lifetime.start.p0(i64 8, ptr %15) #12
  store ptr null, ptr %15, align 8, !tbaa !33
  call void @llvm.lifetime.start.p0(i64 8, ptr %16) #12
  store ptr null, ptr %16, align 8, !tbaa !33
  %22 = load ptr, ptr %8, align 8, !tbaa !15
  %23 = load i32, ptr %22, align 8
  %24 = lshr i32 %23, 4
  %25 = and i32 %24, 15
  %26 = icmp eq i32 %25, 11
  br i1 %26, label %27, label %63

27:                                               ; preds = %6
  %28 = load ptr, ptr %8, align 8, !tbaa !15
  %29 = getelementptr inbounds nuw %struct.redisObject, ptr %28, i32 0, i32 2
  %30 = load ptr, ptr %29, align 8, !tbaa !17
  store ptr %30, ptr %14, align 8, !tbaa !33
  %31 = load ptr, ptr %14, align 8, !tbaa !33
  %32 = call ptr @lpFirst(ptr noundef %31)
  store ptr %32, ptr %15, align 8, !tbaa !33
  %33 = load ptr, ptr %15, align 8, !tbaa !33
  %34 = icmp ne ptr %33, null
  br i1 %34, label %35, label %62

35:                                               ; preds = %27
  %36 = load ptr, ptr %14, align 8, !tbaa !33
  %37 = load ptr, ptr %15, align 8, !tbaa !33
  %38 = load ptr, ptr %9, align 8, !tbaa !33
  %39 = load ptr, ptr %9, align 8, !tbaa !33
  %40 = call i64 @sdslen(ptr noundef %39)
  %41 = trunc i64 %40 to i32
  %42 = call ptr @lpFind(ptr noundef %36, ptr noundef %37, ptr noundef %38, i32 noundef %41, i32 noundef 1)
  store ptr %42, ptr %15, align 8, !tbaa !33
  %43 = load ptr, ptr %15, align 8, !tbaa !33
  %44 = icmp ne ptr %43, null
  br i1 %44, label %45, label %61

45:                                               ; preds = %35
  %46 = load ptr, ptr %14, align 8, !tbaa !33
  %47 = load ptr, ptr %15, align 8, !tbaa !33
  %48 = call ptr @lpNext(ptr noundef %46, ptr noundef %47)
  store ptr %48, ptr %16, align 8, !tbaa !33
  %49 = load ptr, ptr %16, align 8, !tbaa !33
  %50 = icmp ne ptr %49, null
  %51 = xor i1 %50, true
  %52 = xor i1 %51, true
  %53 = zext i1 %52 to i32
  %54 = sext i32 %53 to i64
  %55 = call i64 @llvm.expect.i64(i64 %54, i64 1)
  %56 = icmp ne i64 %55, 0
  br i1 %56, label %57, label %58

57:                                               ; preds = %45
  br label %60

58:                                               ; preds = %45
  call void @_serverAssert(ptr noundef @.str.7, ptr noundef @.str.2, i32 noundef 653)
  call void @abort() #14
  unreachable

59:                                               ; No predecessors!
  br label %60

60:                                               ; preds = %59, %57
  br label %61

61:                                               ; preds = %60, %35
  br label %62

62:                                               ; preds = %61, %27
  br label %146

63:                                               ; preds = %6
  %64 = load ptr, ptr %8, align 8, !tbaa !15
  %65 = load i32, ptr %64, align 8
  %66 = lshr i32 %65, 4
  %67 = and i32 %66, 15
  %68 = icmp eq i32 %67, 12
  br i1 %68, label %69, label %140

69:                                               ; preds = %63
  call void @llvm.lifetime.start.p0(i64 8, ptr %17) #12
  call void @llvm.lifetime.start.p0(i64 8, ptr %18) #12
  call void @llvm.lifetime.start.p0(i64 8, ptr %19) #12
  %70 = load ptr, ptr %8, align 8, !tbaa !15
  %71 = getelementptr inbounds nuw %struct.redisObject, ptr %70, i32 0, i32 2
  %72 = load ptr, ptr %71, align 8, !tbaa !17
  store ptr %72, ptr %19, align 8, !tbaa !19
  %73 = load ptr, ptr %19, align 8, !tbaa !19
  %74 = getelementptr inbounds nuw %struct.listpackEx, ptr %73, i32 0, i32 2
  %75 = load ptr, ptr %74, align 8, !tbaa !21
  %76 = call ptr @lpFirst(ptr noundef %75)
  store ptr %76, ptr %15, align 8, !tbaa !33
  %77 = load ptr, ptr %15, align 8, !tbaa !33
  %78 = icmp ne ptr %77, null
  br i1 %78, label %79, label %139

79:                                               ; preds = %69
  %80 = load ptr, ptr %19, align 8, !tbaa !19
  %81 = getelementptr inbounds nuw %struct.listpackEx, ptr %80, i32 0, i32 2
  %82 = load ptr, ptr %81, align 8, !tbaa !21
  %83 = load ptr, ptr %15, align 8, !tbaa !33
  %84 = load ptr, ptr %9, align 8, !tbaa !33
  %85 = load ptr, ptr %9, align 8, !tbaa !33
  %86 = call i64 @sdslen(ptr noundef %85)
  %87 = trunc i64 %86 to i32
  %88 = call ptr @lpFind(ptr noundef %82, ptr noundef %83, ptr noundef %84, i32 noundef %87, i32 noundef 2)
  store ptr %88, ptr %15, align 8, !tbaa !33
  %89 = load ptr, ptr %15, align 8, !tbaa !33
  %90 = icmp ne ptr %89, null
  br i1 %90, label %91, label %138

91:                                               ; preds = %79
  %92 = load ptr, ptr %19, align 8, !tbaa !19
  %93 = getelementptr inbounds nuw %struct.listpackEx, ptr %92, i32 0, i32 2
  %94 = load ptr, ptr %93, align 8, !tbaa !21
  %95 = load ptr, ptr %15, align 8, !tbaa !33
  %96 = call ptr @lpNext(ptr noundef %94, ptr noundef %95)
  store ptr %96, ptr %16, align 8, !tbaa !33
  %97 = load ptr, ptr %16, align 8, !tbaa !33
  %98 = icmp ne ptr %97, null
  %99 = xor i1 %98, true
  %100 = xor i1 %99, true
  %101 = zext i1 %100 to i32
  %102 = sext i32 %101 to i64
  %103 = call i64 @llvm.expect.i64(i64 %102, i64 1)
  %104 = icmp ne i64 %103, 0
  br i1 %104, label %105, label %106

105:                                              ; preds = %91
  br label %108

106:                                              ; preds = %91
  call void @_serverAssert(ptr noundef @.str.7, ptr noundef @.str.2, i32 noundef 666)
  call void @abort() #14
  unreachable

107:                                              ; No predecessors!
  br label %108

108:                                              ; preds = %107, %105
  %109 = load ptr, ptr %19, align 8, !tbaa !19
  %110 = getelementptr inbounds nuw %struct.listpackEx, ptr %109, i32 0, i32 2
  %111 = load ptr, ptr %110, align 8, !tbaa !21
  %112 = load ptr, ptr %16, align 8, !tbaa !33
  %113 = call ptr @lpNext(ptr noundef %111, ptr noundef %112)
  store ptr %113, ptr %18, align 8, !tbaa !33
  %114 = load ptr, ptr %18, align 8, !tbaa !33
  %115 = icmp ne ptr %114, null
  br i1 %115, label %116, label %120

116:                                              ; preds = %108
  %117 = load ptr, ptr %18, align 8, !tbaa !33
  %118 = call i32 @lpGetIntegerValue(ptr noundef %117, ptr noundef %17)
  %119 = icmp ne i32 %118, 0
  br label %120

120:                                              ; preds = %116, %108
  %121 = phi i1 [ false, %108 ], [ %119, %116 ]
  %122 = xor i1 %121, true
  %123 = xor i1 %122, true
  %124 = zext i1 %123 to i32
  %125 = sext i32 %124 to i64
  %126 = call i64 @llvm.expect.i64(i64 %125, i64 1)
  %127 = icmp ne i64 %126, 0
  br i1 %127, label %128, label %129

128:                                              ; preds = %120
  br label %131

129:                                              ; preds = %120
  call void @_serverAssert(ptr noundef @.str.8, ptr noundef @.str.2, i32 noundef 669)
  call void @abort() #14
  unreachable

130:                                              ; No predecessors!
  br label %131

131:                                              ; preds = %130, %128
  %132 = load i64, ptr %17, align 8, !tbaa !37
  %133 = icmp ne i64 %132, 0
  br i1 %133, label %134, label %137

134:                                              ; preds = %131
  %135 = load i64, ptr %17, align 8, !tbaa !37
  %136 = load ptr, ptr %13, align 8, !tbaa !107
  store i64 %135, ptr %136, align 8, !tbaa !31
  br label %137

137:                                              ; preds = %134, %131
  br label %138

138:                                              ; preds = %137, %79
  br label %139

139:                                              ; preds = %138, %69
  call void @llvm.lifetime.end.p0(i64 8, ptr %19) #12
  call void @llvm.lifetime.end.p0(i64 8, ptr %18) #12
  call void @llvm.lifetime.end.p0(i64 8, ptr %17) #12
  br label %145

140:                                              ; preds = %63
  %141 = load ptr, ptr %8, align 8, !tbaa !15
  %142 = load i32, ptr %141, align 8
  %143 = lshr i32 %142, 4
  %144 = and i32 %143, 15
  call void (ptr, i32, ptr, ...) @_serverPanic(ptr noundef @.str.2, i32 noundef 675, ptr noundef @.str.9, i32 noundef %144)
  call void @abort() #14
  unreachable

145:                                              ; preds = %139
  br label %146

146:                                              ; preds = %145, %62
  %147 = load ptr, ptr %16, align 8, !tbaa !33
  %148 = icmp ne ptr %147, null
  br i1 %148, label %149, label %155

149:                                              ; preds = %146
  %150 = load ptr, ptr %16, align 8, !tbaa !33
  %151 = load ptr, ptr %11, align 8, !tbaa !103
  %152 = load ptr, ptr %12, align 8, !tbaa !105
  %153 = call ptr @lpGetValue(ptr noundef %150, ptr noundef %151, ptr noundef %152)
  %154 = load ptr, ptr %10, align 8, !tbaa !102
  store ptr %153, ptr %154, align 8, !tbaa !33
  store i32 0, ptr %7, align 4
  store i32 1, ptr %20, align 4
  br label %156

155:                                              ; preds = %146
  store i32 1, ptr %7, align 4
  store i32 1, ptr %20, align 4
  br label %156

156:                                              ; preds = %155, %149
  call void @llvm.lifetime.end.p0(i64 8, ptr %16) #12
  call void @llvm.lifetime.end.p0(i64 8, ptr %15) #12
  call void @llvm.lifetime.end.p0(i64 8, ptr %14) #12
  %157 = load i32, ptr %7, align 4
  ret i32 %157
}