; Function Attrs: nounwind uwtable
define dso_local range(i32 0, 2) i32 @hashTypeGetFromListpack(ptr noundef readonly captures(none) %0, ptr noundef %1, ptr noundef writeonly captures(none) %2, ptr noundef %3, ptr noundef %4, ptr noundef writeonly captures(none) initializes((0, 8)) %5) local_unnamed_addr #1 {
  %7 = alloca i64, align 8
  store i64 281474976710656, ptr %5, align 8, !tbaa !28
  %8 = load i32, ptr %0, align 8
  %9 = lshr i32 %8, 4
  %10 = and i32 %9, 15
  switch i32 %10, label %87 [
    i32 11, label %11
    i32 12, label %43
  ]

11:                                               ; preds = %6
  %12 = getelementptr inbounds nuw i8, ptr %0, i64 8
  %13 = load ptr, ptr %12, align 8, !tbaa !10
  %14 = tail call ptr @lpFirst(ptr noundef %13) #16
  %.not50 = icmp eq ptr %14, null
  br i1 %.not50, label %.thread, label %15

15:                                               ; preds = %11
  %16 = getelementptr inbounds i8, ptr %1, i64 -1
  %17 = load i8, ptr %16, align 1, !tbaa !5
  %18 = zext i8 %17 to i32
  %19 = and i32 %18, 7
  switch i32 %19, label %sdslen.exit [
    i32 0, label %20
    i32 1, label %23
    i32 2, label %27
    i32 3, label %31
    i32 4, label %35
  ]

20:                                               ; preds = %15
  %21 = lshr i32 %18, 3
  %22 = zext nneg i32 %21 to i64
  br label %sdslen.exit

23:                                               ; preds = %15
  %24 = getelementptr inbounds i8, ptr %1, i64 -3
  %25 = load i8, ptr %24, align 1, !tbaa !5
  %26 = zext i8 %25 to i64
  br label %sdslen.exit

27:                                               ; preds = %15
  %28 = getelementptr inbounds i8, ptr %1, i64 -5
  %29 = load i16, ptr %28, align 1, !tbaa !8
  %30 = zext i16 %29 to i64
  br label %sdslen.exit

31:                                               ; preds = %15
  %32 = getelementptr inbounds i8, ptr %1, i64 -9
  %33 = load i32, ptr %32, align 1, !tbaa !65
  %34 = zext i32 %33 to i64
  br label %sdslen.exit

35:                                               ; preds = %15
  %36 = getelementptr inbounds i8, ptr %1, i64 -17
  %37 = load i64, ptr %36, align 1, !tbaa !28
  br label %sdslen.exit

sdslen.exit:                                      ; preds = %15, %20, %23, %27, %31, %35
  %.0.i = phi i64 [ %37, %35 ], [ %34, %31 ], [ %30, %27 ], [ %26, %23 ], [ %22, %20 ], [ 0, %15 ]
  %38 = trunc i64 %.0.i to i32
  %39 = tail call ptr @lpFind(ptr noundef %13, ptr noundef nonnull %14, ptr noundef nonnull %1, i32 noundef %38, i32 noundef 1) #16
  %.not51 = icmp eq ptr %39, null
  br i1 %.not51, label %.thread, label %40

40:                                               ; preds = %sdslen.exit
  %41 = tail call ptr @lpNext(ptr noundef %13, ptr noundef nonnull %39) #16
  %.not52 = icmp eq ptr %41, null
  br i1 %.not52, label %42, label %.thread58, !prof !23

42:                                               ; preds = %40
  tail call void @_serverAssert(ptr noundef nonnull @.str.7, ptr noundef nonnull @.str.2, i32 noundef 653) #16
  tail call void @abort() #17
  unreachable

43:                                               ; preds = %6
  call void @llvm.lifetime.start.p0(i64 8, ptr nonnull %7) #16
  %44 = getelementptr inbounds nuw i8, ptr %0, i64 8
  %45 = load ptr, ptr %44, align 8, !tbaa !10
  %46 = getelementptr inbounds nuw i8, ptr %45, i64 24
  %47 = load ptr, ptr %46, align 8, !tbaa !15
  %48 = tail call ptr @lpFirst(ptr noundef %47) #16
  %.not = icmp eq ptr %48, null
  br i1 %.not, label %.thread63, label %49

49:                                               ; preds = %43
  %50 = load ptr, ptr %46, align 8, !tbaa !15
  %51 = getelementptr inbounds i8, ptr %1, i64 -1
  %52 = load i8, ptr %51, align 1, !tbaa !5
  %53 = zext i8 %52 to i32
  %54 = and i32 %53, 7
  switch i32 %54, label %sdslen.exit55 [
    i32 0, label %55
    i32 1, label %58
    i32 2, label %62
    i32 3, label %66
    i32 4, label %70
  ]

55:                                               ; preds = %49
  %56 = lshr i32 %53, 3
  %57 = zext nneg i32 %56 to i64
  br label %sdslen.exit55

58:                                               ; preds = %49
  %59 = getelementptr inbounds i8, ptr %1, i64 -3
  %60 = load i8, ptr %59, align 1, !tbaa !5
  %61 = zext i8 %60 to i64
  br label %sdslen.exit55

62:                                               ; preds = %49
  %63 = getelementptr inbounds i8, ptr %1, i64 -5
  %64 = load i16, ptr %63, align 1, !tbaa !8
  %65 = zext i16 %64 to i64
  br label %sdslen.exit55

66:                                               ; preds = %49
  %67 = getelementptr inbounds i8, ptr %1, i64 -9
  %68 = load i32, ptr %67, align 1, !tbaa !65
  %69 = zext i32 %68 to i64
  br label %sdslen.exit55

70:                                               ; preds = %49
  %71 = getelementptr inbounds i8, ptr %1, i64 -17
  %72 = load i64, ptr %71, align 1, !tbaa !28
  br label %sdslen.exit55

sdslen.exit55:                                    ; preds = %49, %55, %58, %62, %66, %70
  %.0.i54 = phi i64 [ %72, %70 ], [ %69, %66 ], [ %65, %62 ], [ %61, %58 ], [ %57, %55 ], [ 0, %49 ]
  %73 = trunc i64 %.0.i54 to i32
  %74 = tail call ptr @lpFind(ptr noundef %50, ptr noundef nonnull %48, ptr noundef nonnull %1, i32 noundef %73, i32 noundef 2) #16
  %.not46 = icmp eq ptr %74, null
  br i1 %.not46, label %.thread63, label %75

75:                                               ; preds = %sdslen.exit55
  %76 = load ptr, ptr %46, align 8, !tbaa !15
  %77 = tail call ptr @lpNext(ptr noundef %76, ptr noundef nonnull %74) #16
  %.not47 = icmp eq ptr %77, null
  br i1 %.not47, label %78, label %79, !prof !23

78:                                               ; preds = %75
  tail call void @_serverAssert(ptr noundef nonnull @.str.7, ptr noundef nonnull @.str.2, i32 noundef 666) #16
  tail call void @abort() #17
  unreachable

79:                                               ; preds = %75
  %80 = load ptr, ptr %46, align 8, !tbaa !15
  %81 = tail call ptr @lpNext(ptr noundef %80, ptr noundef nonnull %77) #16
  %.not48 = icmp eq ptr %81, null
  br i1 %.not48, label %.critedge, label %82, !prof !23

82:                                               ; preds = %79
  %83 = call i32 @lpGetIntegerValue(ptr noundef nonnull %81, ptr noundef nonnull %7) #16
  %.not66 = icmp eq i32 %83, 0
  br i1 %.not66, label %.critedge, label %84, !prof !23

.critedge:                                        ; preds = %79, %82
  call void @_serverAssert(ptr noundef nonnull @.str.8, ptr noundef nonnull @.str.2, i32 noundef 669) #16
  call void @abort() #17
  unreachable

84:                                               ; preds = %82
  %85 = load i64, ptr %7, align 8, !tbaa !24
  %.not49 = icmp eq i64 %85, 0
  br i1 %.not49, label %88, label %86

86:                                               ; preds = %84
  store i64 %85, ptr %5, align 8, !tbaa !28
  br label %88

87:                                               ; preds = %6
  tail call void (ptr, i32, ptr, ...) @_serverPanic(ptr noundef nonnull @.str.2, i32 noundef 675, ptr noundef nonnull @.str.9, i32 noundef %10) #16
  tail call void @abort() #17
  unreachable

.thread63:                                        ; preds = %sdslen.exit55, %43
  call void @llvm.lifetime.end.p0(i64 8, ptr nonnull %7) #16
  br label %.thread

88:                                               ; preds = %84, %86
  call void @llvm.lifetime.end.p0(i64 8, ptr nonnull %7) #16
  br label %.thread58

.thread58:                                        ; preds = %40, %88
  %.03661 = phi ptr [ %77, %88 ], [ %41, %40 ]
  %89 = call ptr @lpGetValue(ptr noundef nonnull %.03661, ptr noundef %3, ptr noundef %4) #16
  store ptr %89, ptr %2, align 8, !tbaa !85
  br label %.thread

.thread:                                          ; preds = %11, %sdslen.exit, %.thread63, %.thread58
  %.0 = phi i32 [ 0, %.thread58 ], [ 1, %.thread63 ], [ 1, %sdslen.exit ], [ 1, %11 ]
  ret i32 %.0
}